target datalayout = "e-m:e-p270:32:32-p271:32:32-p272:64:64-i64:64-i128:128-f80:128-n8:16:32:64-S128"
target triple = "x86_64-pc-linux-gnu"

%struct.Agobj_s = type { %struct.Agtag_s, ptr }
%struct.Agtag_s = type { i32, i64 }
%struct.Agrec_s = type { ptr, ptr }
%struct.pointf_s = type { double, double }
%struct.Agedgeinfo_t = type { %struct.Agrec_s, ptr, %struct.port, %struct.port, ptr, ptr, ptr, ptr, i8, i8, i8, i8, i8, ptr, ptr, double, double, %struct.Ppoly_t, i8, i8, i16, i32, i32, i32, i16, i32, ptr }
%struct.port = type { %struct.pointf_s, double, ptr, i8, i8, i8, i8, i8, i8, ptr }
%struct.Ppoly_t = type { ptr, i64 }

@.str = private unnamed_addr constant [21 x i8] c"merge_oneway glitch\0A\00", align 1

; Function Attrs: nounwind uwtable
define internal void @basic_merge(ptr noundef %0, ptr noundef %1) #0 {
  %3 = alloca ptr, align 8
  %4 = alloca ptr, align 8
  store ptr %0, ptr %3, align 8, !tbaa !19
  store ptr %1, ptr %4, align 8, !tbaa !19
  %5 = load ptr, ptr %4, align 8, !tbaa !19
  %6 = getelementptr inbounds nuw %struct.Agobj_s, ptr %5, i32 0, i32 1
  %7 = load ptr, ptr %6, align 8, !tbaa !8
  %8 = getelementptr inbounds nuw %struct.Agedgeinfo_t, ptr %7, i32 0, i32 25
  %9 = load i32, ptr %8, align 4, !tbaa !67
  %10 = load ptr, ptr %3, align 8, !tbaa !19
  %11 = getelementptr inbounds nuw %struct.Agobj_s, ptr %10, i32 0, i32 1
  %12 = load ptr, ptr %11, align 8, !tbaa !8
  %13 = getelementptr inbounds nuw %struct.Agedgeinfo_t, ptr %12, i32 0, i32 25
  %14 = load i32, ptr %13, align 4, !tbaa !67
  %15 = icmp slt i32 %9, %14
  br i1 %15, label %16, label %26

16:                                               ; preds = %2
  %17 = load ptr, ptr %3, align 8, !tbaa !19
  %18 = getelementptr inbounds nuw %struct.Agobj_s, ptr %17, i32 0, i32 1
  %19 = load ptr, ptr %18, align 8, !tbaa !8
  %20 = getelementptr inbounds nuw %struct.Agedgeinfo_t, ptr %19, i32 0, i32 25
  %21 = load i32, ptr %20, align 4, !tbaa !67
  %22 = load ptr, ptr %4, align 8, !tbaa !19
  %23 = getelementptr inbounds nuw %struct.Agobj_s, ptr %22, i32 0, i32 1
  %24 = load ptr, ptr %23, align 8, !tbaa !8
  %25 = getelementptr inbounds nuw %struct.Agedgeinfo_t, ptr %24, i32 0, i32 25
  store i32 %21, ptr %25, align 4, !tbaa !67
  br label %26

26:                                               ; preds = %16, %2
  br label %27

27:                                               ; preds = %30, %26
  %28 = load ptr, ptr %4, align 8, !tbaa !19
  %29 = icmp ne ptr %28, null
  br i1 %29, label %30, label %75

30:                                               ; preds = %27
  %31 = load ptr, ptr %3, align 8, !tbaa !19
  %32 = getelementptr inbounds nuw %struct.Agobj_s, ptr %31, i32 0, i32 1
  %33 = load ptr, ptr %32, align 8, !tbaa !8
  %34 = getelementptr inbounds nuw %struct.Agedgeinfo_t, ptr %33, i32 0, i32 24
  %35 = load i16, ptr %34, align 8, !tbaa !64
  %36 = sext i16 %35 to i32
  %37 = load ptr, ptr %4, align 8, !tbaa !19
  %38 = getelementptr inbounds nuw %struct.Agobj_s, ptr %37, i32 0, i32 1
  %39 = load ptr, ptr %38, align 8, !tbaa !8
  %40 = getelementptr inbounds nuw %struct.Agedgeinfo_t, ptr %39, i32 0, i32 24
  %41 = load i16, ptr %40, align 8, !tbaa !64
  %42 = sext i16 %41 to i32
  %43 = add nsw i32 %42, %36
  %44 = trunc i32 %43 to i16
  store i16 %44, ptr %40, align 8, !tbaa !64
  %45 = load ptr, ptr %3, align 8, !tbaa !19
  %46 = getelementptr inbounds nuw %struct.Agobj_s, ptr %45, i32 0, i32 1
  %47 = load ptr, ptr %46, align 8, !tbaa !8
  %48 = getelementptr inbounds nuw %struct.Agedgeinfo_t, ptr %47, i32 0, i32 20
  %49 = load i16, ptr %48, align 2, !tbaa !65
  %50 = sext i16 %49 to i32
  %51 = load ptr, ptr %4, align 8, !tbaa !19
  %52 = getelementptr inbounds nuw %struct.Agobj_s, ptr %51, i32 0, i32 1
  %53 = load ptr, ptr %52, align 8, !tbaa !8
  %54 = getelementptr inbounds nuw %struct.Agedgeinfo_t, ptr %53, i32 0, i32 20
  %55 = load i16, ptr %54, align 2, !tbaa !65
  %56 = sext i16 %55 to i32
  %57 = add nsw i32 %56, %50
  %58 = trunc i32 %57 to i16
  store i16 %58, ptr %54, align 2, !tbaa !65
  %59 = load ptr, ptr %3, align 8, !tbaa !19
  %60 = getelementptr inbounds nuw %struct.Agobj_s, ptr %59, i32 0, i32 1
  %61 = load ptr, ptr %60, align 8, !tbaa !8
  %62 = getelementptr inbounds nuw %struct.Agedgeinfo_t, ptr %61, i32 0, i32 21
  %63 = load i32, ptr %62, align 4, !tbaa !66
  %64 = load ptr, ptr %4, align 8, !tbaa !19
  %65 = getelementptr inbounds nuw %struct.Agobj_s, ptr %64, i32 0, i32 1
  %66 = load ptr, ptr %65, align 8, !tbaa !8
  %67 = getelementptr inbounds nuw %struct.Agedgeinfo_t, ptr %66, i32 0, i32 21
  %68 = load i32, ptr %67, align 4, !tbaa !66
  %69 = add nsw i32 %68, %63
  store i32 %69, ptr %67, align 4, !tbaa !66
  %70 = load ptr, ptr %4, align 8, !tbaa !19
  %71 = getelementptr inbounds nuw %struct.Agobj_s, ptr %70, i32 0, i32 1
  %72 = load ptr, ptr %71, align 8, !tbaa !8
  %73 = getelementptr inbounds nuw %struct.Agedgeinfo_t, ptr %72, i32 0, i32 26
  %74 = load ptr, ptr %73, align 8, !tbaa !73
  store ptr %74, ptr %4, align 8, !tbaa !19
  br label %27, !llvm.loop !102

75:                                               ; preds = %27
  ret void
}

; Function Attrs: nounwind uwtable
define void @merge_oneway(ptr noundef %0, ptr noundef %1) #0 {
  %3 = alloca ptr, align 8
  %4 = alloca ptr, align 8
  store ptr %0, ptr %3, align 8, !tbaa !19
  store ptr %1, ptr %4, align 8, !tbaa !19
  %5 = load ptr, ptr %4, align 8, !tbaa !19
  %6 = load ptr, ptr %3, align 8, !tbaa !19
  %7 = getelementptr inbounds nuw %struct.Agobj_s, ptr %6, i32 0, i32 1
  %8 = load ptr, ptr %7, align 8, !tbaa !8
  %9 = getelementptr inbounds nuw %struct.Agedgeinfo_t, ptr %8, i32 0, i32 26
  %10 = load ptr, ptr %9, align 8, !tbaa !73
  %11 = icmp eq ptr %5, %10
  br i1 %11, label %20, label %12

12:                                               ; preds = %2
  %13 = load ptr, ptr %3, align 8, !tbaa !19
  %14 = load ptr, ptr %4, align 8, !tbaa !19
  %15 = getelementptr inbounds nuw %struct.Agobj_s, ptr %14, i32 0, i32 1
  %16 = load ptr, ptr %15, align 8, !tbaa !8
  %17 = getelementptr inbounds nuw %struct.Agedgeinfo_t, ptr %16, i32 0, i32 26
  %18 = load ptr, ptr %17, align 8, !tbaa !73
  %19 = icmp eq ptr %13, %18
  br i1 %19, label %20, label %21

20:                                               ; preds = %12, %2
  call void (ptr, ...) @agwarningf(ptr noundef @.str)
  br label %29

21:                                               ; preds = %12
  %22 = load ptr, ptr %4, align 8, !tbaa !19
  %23 = load ptr, ptr %3, align 8, !tbaa !19
  %24 = getelementptr inbounds nuw %struct.Agobj_s, ptr %23, i32 0, i32 1
  %25 = load ptr, ptr %24, align 8, !tbaa !8
  %26 = getelementptr inbounds nuw %struct.Agedgeinfo_t, ptr %25, i32 0, i32 26
  store ptr %22, ptr %26, align 8, !tbaa !73
  %27 = load ptr, ptr %3, align 8, !tbaa !19
  %28 = load ptr, ptr %4, align 8, !tbaa !19
  call void @basic_merge(ptr noundef %27, ptr noundef %28)
  br label %29

29:                                               ; preds = %21, %20
  ret void
}