; Function Attrs: nounwind uwtable
define void @merge_oneway(ptr noundef readonly captures(address) %0, ptr noundef %1) local_unnamed_addr #1 {
  %3 = getelementptr inbounds nuw i8, ptr %0, i64 16
  %4 = load ptr, ptr %3, align 8, !tbaa !3
  %5 = getelementptr inbounds nuw i8, ptr %4, i64 232
  %6 = load ptr, ptr %5, align 8, !tbaa !60
  %7 = icmp eq ptr %1, %6
  br i1 %7, label %14, label %8

8:                                                ; preds = %2
  %9 = getelementptr inbounds nuw i8, ptr %1, i64 16
  %10 = load ptr, ptr %9, align 8, !tbaa !3
  %11 = getelementptr inbounds nuw i8, ptr %10, i64 232
  %12 = load ptr, ptr %11, align 8, !tbaa !60
  %13 = icmp eq ptr %0, %12
  br i1 %13, label %14, label %15

14:                                               ; preds = %8, %2
  tail call void (ptr, ...) @agwarningf(ptr noundef nonnull @.str) #17
  br label %basic_merge.exit

15:                                               ; preds = %8
  store ptr %1, ptr %5, align 8, !tbaa !60
  %16 = getelementptr inbounds nuw i8, ptr %10, i64 228
  %17 = load i32, ptr %16, align 4, !tbaa !59
  %18 = getelementptr inbounds nuw i8, ptr %4, i64 228
  %19 = load i32, ptr %18, align 4, !tbaa !59
  %20 = icmp slt i32 %17, %19
  br i1 %20, label %21, label %.lr.ph.i

21:                                               ; preds = %15
  store i32 %19, ptr %16, align 4, !tbaa !59
  br label %.lr.ph.i

.lr.ph.i:                                         ; preds = %21, %15
  %22 = getelementptr inbounds nuw i8, ptr %4, i64 224
  %23 = getelementptr inbounds nuw i8, ptr %4, i64 210
  %24 = getelementptr inbounds nuw i8, ptr %4, i64 212
  br label %25

25:                                               ; preds = %25, %.lr.ph.i
  %.02.i = phi ptr [ %1, %.lr.ph.i ], [ %41, %25 ]
  %26 = load i16, ptr %22, align 8, !tbaa !56
  %27 = getelementptr inbounds nuw i8, ptr %.02.i, i64 16
  %28 = load ptr, ptr %27, align 8, !tbaa !3
  %29 = getelementptr inbounds nuw i8, ptr %28, i64 224
  %30 = load i16, ptr %29, align 8, !tbaa !56
  %31 = add i16 %30, %26
  store i16 %31, ptr %29, align 8, !tbaa !56
  %32 = load i16, ptr %23, align 2, !tbaa !57
  %33 = getelementptr inbounds nuw i8, ptr %28, i64 210
  %34 = load i16, ptr %33, align 2, !tbaa !57
  %35 = add i16 %34, %32
  store i16 %35, ptr %33, align 2, !tbaa !57
  %36 = load i32, ptr %24, align 4, !tbaa !58
  %37 = getelementptr inbounds nuw i8, ptr %28, i64 212
  %38 = load i32, ptr %37, align 4, !tbaa !58
  %39 = add nsw i32 %38, %36
  store i32 %39, ptr %37, align 4, !tbaa !58
  %40 = getelementptr inbounds nuw i8, ptr %28, i64 232
  %41 = load ptr, ptr %40, align 8, !tbaa !60
  %.not.i = icmp eq ptr %41, null
  br i1 %.not.i, label %basic_merge.exit, label %25, !llvm.loop !89

basic_merge.exit:                                 ; preds = %25, %14
  ret void
}